target datalayout = "e-m:e-p270:32:32-p271:32:32-p272:64:64-i64:64-i128:128-f80:128-n8:16:32:64-S128"
target triple = "x86_64-pc-linux-gnu"

%struct.pcaprec_hdr = type { i32, i32, i32, i32 }
%struct.wtap_rec = type { i32, i32, i32, %struct.nstime_t, i32, %struct.nstime_t, i8, %union.anon, ptr, i8, %struct.Buffer, %struct.Buffer }
%struct.nstime_t = type { i64, i32 }
%union.anon = type { %struct.wtap_packet_header }
%struct.wtap_packet_header = type { i32, i32, i32, i32, %union.wtap_pseudo_header }
%union.wtap_pseudo_header = type { %struct.erf_mc_phdr }
%struct.erf_mc_phdr = type { %struct.erf_phdr, [16 x %struct.erf_ehdr], %union.anon.1 }
%struct.erf_phdr = type { i64, i8, i8, i16, i16, i16 }
%struct.erf_ehdr = type { i64 }
%union.anon.1 = type { i32 }
%struct.Buffer = type { ptr, i64, i64, i64 }
%struct.pcaprec_nokia_hdr = type { %struct.pcaprec_hdr, [4 x i8] }
%struct.nokia_phdr = type { %struct.eth_phdr, [4 x i8] }
%struct.eth_phdr = type { i32 }

; Function Attrs: alwaysinline nounwind
define internal ptr @memcpy.inline(ptr noalias %0, ptr noalias %1, i64 %2) #7 {
  %4 = alloca ptr, align 8
  %5 = alloca ptr, align 8
  %6 = alloca i64, align 8
  store ptr %0, ptr %4, align 8
  store ptr %1, ptr %5, align 8
  store i64 %2, ptr %6, align 8
  %7 = load ptr, ptr %4, align 8
  %8 = load ptr, ptr %5, align 8
  %9 = load i64, ptr %6, align 8
  %10 = load ptr, ptr %4, align 8
  %11 = call i64 @llvm.objectsize.i64.p0(ptr %10, i1 false, i1 true, i1 true)
  %12 = call ptr @__memcpy_chk(ptr noundef %7, ptr noundef %8, i64 noundef %9, i64 noundef %11) #10
  ret ptr %12
}

; Function Attrs: null_pointer_is_valid sspstrong uwtable
define internal zeroext i1 @libpcap_dump_pcap_nokia(ptr noundef %0, ptr noundef %1, ptr noundef %2, ptr noundef %3, ptr noundef %4) #0 {
  %6 = alloca i1, align 1
  %7 = alloca ptr, align 8
  %8 = alloca ptr, align 8
  %9 = alloca ptr, align 8
  %10 = alloca ptr, align 8
  %11 = alloca ptr, align 8
  %12 = alloca %struct.pcaprec_nokia_hdr, align 4
  %13 = alloca ptr, align 8
  %14 = alloca i32, align 4
  store ptr %0, ptr %7, align 8
  store ptr %1, ptr %8, align 8
  store ptr %2, ptr %9, align 8
  store ptr %3, ptr %10, align 8
  store ptr %4, ptr %11, align 8
  call void @llvm.lifetime.start.p0(i64 20, ptr %12) #10
  call void @llvm.lifetime.start.p0(i64 8, ptr %13) #10
  %15 = load ptr, ptr %8, align 8
  %16 = getelementptr inbounds nuw %struct.wtap_rec, ptr %15, i32 0, i32 7
  %17 = getelementptr inbounds nuw %struct.wtap_packet_header, ptr %16, i32 0, i32 4
  store ptr %17, ptr %13, align 8
  %18 = load ptr, ptr %8, align 8
  %19 = getelementptr inbounds nuw %struct.wtap_rec, ptr %18, i32 0, i32 3
  %20 = getelementptr inbounds nuw %struct.nstime_t, ptr %19, i32 0, i32 0
  %21 = load i64, ptr %20, align 8
  %22 = icmp slt i64 %21, 0
  br i1 %22, label %29, label %23

23:                                               ; preds = %5
  %24 = load ptr, ptr %8, align 8
  %25 = getelementptr inbounds nuw %struct.wtap_rec, ptr %24, i32 0, i32 3
  %26 = getelementptr inbounds nuw %struct.nstime_t, ptr %25, i32 0, i32 0
  %27 = load i64, ptr %26, align 8
  %28 = icmp sgt i64 %27, 2147483647
  br i1 %28, label %29, label %31

29:                                               ; preds = %23, %5
  %30 = load ptr, ptr %10, align 8
  store i32 -27, ptr %30, align 4
  store i1 false, ptr %6, align 1
  store i32 1, ptr %14, align 4
  br label %58

31:                                               ; preds = %23
  %32 = load ptr, ptr %8, align 8
  %33 = getelementptr inbounds nuw %struct.wtap_rec, ptr %32, i32 0, i32 3
  %34 = getelementptr inbounds nuw %struct.nstime_t, ptr %33, i32 0, i32 0
  %35 = load i64, ptr %34, align 8
  %36 = trunc i64 %35 to i32
  %37 = getelementptr inbounds nuw %struct.pcaprec_nokia_hdr, ptr %12, i32 0, i32 0
  %38 = getelementptr inbounds nuw %struct.pcaprec_hdr, ptr %37, i32 0, i32 0
  store i32 %36, ptr %38, align 4
  %39 = load ptr, ptr %8, align 8
  %40 = getelementptr inbounds nuw %struct.wtap_rec, ptr %39, i32 0, i32 3
  %41 = getelementptr inbounds nuw %struct.nstime_t, ptr %40, i32 0, i32 1
  %42 = load i32, ptr %41, align 8
  %43 = sdiv i32 %42, 1000
  %44 = getelementptr inbounds nuw %struct.pcaprec_nokia_hdr, ptr %12, i32 0, i32 0
  %45 = getelementptr inbounds nuw %struct.pcaprec_hdr, ptr %44, i32 0, i32 1
  store i32 %43, ptr %45, align 4
  %46 = getelementptr inbounds nuw %struct.pcaprec_nokia_hdr, ptr %12, i32 0, i32 1
  %47 = getelementptr inbounds [4 x i8], ptr %46, i64 0, i64 0
  %48 = load ptr, ptr %13, align 8
  %49 = getelementptr inbounds nuw %struct.nokia_phdr, ptr %48, i32 0, i32 1
  %50 = getelementptr inbounds [4 x i8], ptr %49, i64 0, i64 0
  %51 = call ptr @memcpy.inline(ptr noundef %47, ptr noundef %50, i64 noundef 4) #10
  %52 = load ptr, ptr %7, align 8
  %53 = load ptr, ptr %8, align 8
  %54 = getelementptr inbounds nuw %struct.pcaprec_nokia_hdr, ptr %12, i32 0, i32 0
  %55 = load ptr, ptr %9, align 8
  %56 = load ptr, ptr %10, align 8
  %57 = call zeroext i1 @libpcap_dump_write_packet(ptr noundef %52, ptr noundef %53, ptr noundef %54, i64 noundef 20, ptr noundef %55, ptr noundef %56)
  store i1 %57, ptr %6, align 1
  store i32 1, ptr %14, align 4
  br label %58

58:                                               ; preds = %31, %29
  call void @llvm.lifetime.end.p0(i64 8, ptr %13) #10
  call void @llvm.lifetime.end.p0(i64 20, ptr %12) #10
  %59 = load i1, ptr %6, align 1
  ret i1 %59
}